target datalayout = "e-m:e-p270:32:32-p271:32:32-p272:64:64-i64:64-i128:128-f80:128-n8:16:32:64-S128"
target triple = "x86_64-pc-linux-gnu"

; Function Attrs: mustprogress uwtable
define hidden noundef i32 @_ZN6google8protobuf16EncodeAsUTF8CharEjPc(i32 noundef %0, ptr noundef %1) #4 {
  %3 = alloca i32, align 4
  %4 = alloca ptr, align 8
  %5 = alloca i32, align 4
  %6 = alloca i32, align 4
  store i32 %0, ptr %3, align 4, !tbaa !15
  store ptr %1, ptr %4, align 8, !tbaa !8
  call void @llvm.lifetime.start.p0(i64 4, ptr %5) #3
  store i32 0, ptr %5, align 4, !tbaa !15
  call void @llvm.lifetime.start.p0(i64 4, ptr %6) #3
  store i32 0, ptr %6, align 4, !tbaa !15
  %7 = load i32, ptr %3, align 4, !tbaa !15
  %8 = icmp ule i32 %7, 127
  br i1 %8, label %9, label %11

9:                                                ; preds = %2
  %10 = load i32, ptr %3, align 4, !tbaa !15
  store i32 %10, ptr %5, align 4, !tbaa !15
  store i32 1, ptr %6, align 4, !tbaa !15
  br label %55

11:                                               ; preds = %2
  %12 = load i32, ptr %3, align 4, !tbaa !15
  %13 = icmp ule i32 %12, 2047
  br i1 %13, label %14, label %22

14:                                               ; preds = %11
  %15 = load i32, ptr %3, align 4, !tbaa !15
  %16 = and i32 %15, 1984
  %17 = shl i32 %16, 2
  %18 = or i32 49280, %17
  %19 = load i32, ptr %3, align 4, !tbaa !15
  %20 = and i32 %19, 63
  %21 = or i32 %18, %20
  store i32 %21, ptr %5, align 4, !tbaa !15
  store i32 2, ptr %6, align 4, !tbaa !15
  br label %54

22:                                               ; preds = %11
  %23 = load i32, ptr %3, align 4, !tbaa !15
  %24 = icmp ule i32 %23, 65535
  br i1 %24, label %25, label %37

25:                                               ; preds = %22
  %26 = load i32, ptr %3, align 4, !tbaa !15
  %27 = and i32 %26, 61440
  %28 = shl i32 %27, 4
  %29 = or i32 14712960, %28
  %30 = load i32, ptr %3, align 4, !tbaa !15
  %31 = and i32 %30, 4032
  %32 = shl i32 %31, 2
  %33 = or i32 %29, %32
  %34 = load i32, ptr %3, align 4, !tbaa !15
  %35 = and i32 %34, 63
  %36 = or i32 %33, %35
  store i32 %36, ptr %5, align 4, !tbaa !15
  store i32 3, ptr %6, align 4, !tbaa !15
  br label %53

37:                                               ; preds = %22
  %38 = load i32, ptr %3, align 4, !tbaa !15
  %39 = and i32 %38, 1835008
  %40 = shl i32 %39, 6
  %41 = or i32 -260013952, %40
  %42 = load i32, ptr %3, align 4, !tbaa !15
  %43 = and i32 %42, 258048
  %44 = shl i32 %43, 4
  %45 = or i32 %41, %44
  %46 = load i32, ptr %3, align 4, !tbaa !15
  %47 = and i32 %46, 4032
  %48 = shl i32 %47, 2
  %49 = or i32 %45, %48
  %50 = load i32, ptr %3, align 4, !tbaa !15
  %51 = and i32 %50, 63
  %52 = or i32 %49, %51
  store i32 %52, ptr %5, align 4, !tbaa !15
  store i32 4, ptr %6, align 4, !tbaa !15
  br label %53

53:                                               ; preds = %37, %25
  br label %54

54:                                               ; preds = %53, %14
  br label %55

55:                                               ; preds = %54, %9
  %56 = load i32, ptr %5, align 4, !tbaa !15
  %57 = call noundef i32 @_ZN6google8protobuf6ghtonlEj(i32 noundef %56)
  store i32 %57, ptr %5, align 4, !tbaa !15
  %58 = load ptr, ptr %4, align 8, !tbaa !8
  %59 = getelementptr inbounds nuw i8, ptr %5, i64 4
  %60 = load i32, ptr %6, align 4, !tbaa !15
  %61 = sext i32 %60 to i64
  %62 = sub i64 0, %61
  %63 = getelementptr inbounds i8, ptr %59, i64 %62
  %64 = load i32, ptr %6, align 4, !tbaa !15
  %65 = sext i32 %64 to i64
  call void @llvm.memcpy.p0.p0.i64(ptr align 1 %58, ptr align 1 %63, i64 %65, i1 false)
  %66 = load i32, ptr %6, align 4, !tbaa !15
  call void @llvm.lifetime.end.p0(i64 4, ptr %6) #3
  call void @llvm.lifetime.end.p0(i64 4, ptr %5) #3
  ret i32 %66
}