; Function Attrs: mustprogress uwtable
define hidden noundef range(i32 1, 5) i32 @_ZN6google8protobuf16EncodeAsUTF8CharEjPc(i32 noundef %0, ptr noundef writeonly captures(none) %1) local_unnamed_addr #6 {
  %3 = alloca i32, align 4
  call void @llvm.lifetime.start.p0(i64 4, ptr nonnull %3) #31
  %4 = icmp ult i32 %0, 128
  br i1 %4, label %36, label %5

5:                                                ; preds = %2
  %6 = icmp ult i32 %0, 2048
  br i1 %6, label %7, label %13

7:                                                ; preds = %5
  %8 = shl nuw nsw i32 %0, 2
  %9 = and i32 %8, 7936
  %10 = and i32 %0, 63
  %11 = or disjoint i32 %10, %9
  %12 = or disjoint i32 %11, 49280
  br label %36

13:                                               ; preds = %5
  %14 = icmp ult i32 %0, 65536
  br i1 %14, label %15, label %24

15:                                               ; preds = %13
  %16 = shl nuw nsw i32 %0, 4
  %17 = and i32 %16, 983040
  %18 = shl nuw nsw i32 %0, 2
  %19 = and i32 %18, 16128
  %20 = and i32 %0, 63
  %21 = or disjoint i32 %20, %19
  %22 = or disjoint i32 %21, %17
  %23 = or disjoint i32 %22, 14712960
  br label %36

24:                                               ; preds = %13
  %25 = shl i32 %0, 6
  %26 = and i32 %25, 117440512
  %27 = shl i32 %0, 4
  %28 = and i32 %27, 4128768
  %29 = shl i32 %0, 2
  %30 = and i32 %29, 16128
  %31 = and i32 %0, 63
  %32 = or disjoint i32 %31, %28
  %33 = or disjoint i32 %32, %26
  %34 = or disjoint i32 %33, %30
  %35 = or disjoint i32 %34, -260013952
  br label %36

36:                                               ; preds = %2, %7, %24, %15
  %37 = phi i32 [ %12, %7 ], [ %23, %15 ], [ %35, %24 ], [ %0, %2 ]
  %.0 = phi i32 [ 2, %7 ], [ 3, %15 ], [ 4, %24 ], [ 1, %2 ]
  %38 = tail call noundef i32 @_ZN6google8protobuf6ghtonlEj(i32 noundef %37)
  store i32 %38, ptr %3, align 4, !tbaa !65
  %39 = getelementptr inbounds nuw i8, ptr %3, i64 4
  %40 = zext nneg i32 %.0 to i64
  %41 = sub nsw i64 0, %40
  %42 = getelementptr inbounds i8, ptr %39, i64 %41
  call void @llvm.memcpy.p0.p0.i64(ptr noundef nonnull align 1 dereferenceable(1) %1, ptr noundef nonnull align 1 dereferenceable(1) %42, i64 %40, i1 false)
  call void @llvm.lifetime.end.p0(i64 4, ptr nonnull %3) #31
  ret i32 %.0
}